target datalayout = "e-m:e-p270:32:32-p271:32:32-p272:64:64-i64:64-i128:128-f80:128-n8:16:32:64-S128"
target triple = "x86_64-pc-linux-gnu"

; Function Attrs: nounwind uwtable
define internal ptr @Abc_ObjNot(ptr noundef %0) #0 {
  %2 = alloca ptr, align 8
  store ptr %0, ptr %2, align 8
  %3 = load ptr, ptr %2, align 8
  %4 = ptrtoint ptr %3 to i64
  %5 = xor i64 %4, 1
  %6 = inttoptr i64 %5 to ptr
  ret ptr %6
}

; Function Attrs: nounwind uwtable
define ptr @Abc_AigMuxLookup(ptr noundef %0, ptr noundef %1, ptr noundef %2, ptr noundef %3, ptr noundef %4) #0 {
  %6 = alloca ptr, align 8
  %7 = alloca ptr, align 8
  %8 = alloca ptr, align 8
  %9 = alloca ptr, align 8
  %10 = alloca ptr, align 8
  %11 = alloca ptr, align 8
  %12 = alloca ptr, align 8
  %13 = alloca ptr, align 8
  %14 = alloca ptr, align 8
  store ptr %0, ptr %7, align 8
  store ptr %1, ptr %8, align 8
  store ptr %2, ptr %9, align 8
  store ptr %3, ptr %10, align 8
  store ptr %4, ptr %11, align 8
  %15 = load ptr, ptr %11, align 8
  %16 = icmp ne ptr %15, null
  br i1 %16, label %17, label %19

17:                                               ; preds = %5
  %18 = load ptr, ptr %11, align 8
  store i32 0, ptr %18, align 4
  br label %19

19:                                               ; preds = %17, %5
  %20 = load ptr, ptr %7, align 8
  %21 = load ptr, ptr %8, align 8
  %22 = load ptr, ptr %9, align 8
  %23 = call ptr @Abc_ObjNot(ptr noundef %22)
  %24 = call ptr @Abc_AigAndLookup(ptr noundef %20, ptr noundef %21, ptr noundef %23)
  store ptr %24, ptr %12, align 8
  %25 = icmp ne ptr %24, null
  br i1 %25, label %26, label %50

26:                                               ; preds = %19
  %27 = load ptr, ptr %7, align 8
  %28 = load ptr, ptr %8, align 8
  %29 = call ptr @Abc_ObjNot(ptr noundef %28)
  %30 = load ptr, ptr %10, align 8
  %31 = call ptr @Abc_ObjNot(ptr noundef %30)
  %32 = call ptr @Abc_AigAndLookup(ptr noundef %27, ptr noundef %29, ptr noundef %31)
  store ptr %32, ptr %13, align 8
  %33 = icmp ne ptr %32, null
  br i1 %33, label %34, label %50

34:                                               ; preds = %26
  %35 = load ptr, ptr %7, align 8
  %36 = load ptr, ptr %12, align 8
  %37 = call ptr @Abc_ObjNot(ptr noundef %36)
  %38 = load ptr, ptr %13, align 8
  %39 = call ptr @Abc_ObjNot(ptr noundef %38)
  %40 = call ptr @Abc_AigAndLookup(ptr noundef %35, ptr noundef %37, ptr noundef %39)
  store ptr %40, ptr %14, align 8
  %41 = load ptr, ptr %14, align 8
  %42 = icmp ne ptr %41, null
  br i1 %42, label %43, label %48

43:                                               ; preds = %34
  %44 = load ptr, ptr %11, align 8
  %45 = icmp ne ptr %44, null
  br i1 %45, label %46, label %48

46:                                               ; preds = %43
  %47 = load ptr, ptr %11, align 8
  store i32 1, ptr %47, align 4
  br label %48

48:                                               ; preds = %46, %43, %34
  %49 = load ptr, ptr %14, align 8
  store ptr %49, ptr %6, align 8
  br label %79

50:                                               ; preds = %26, %19
  %51 = load ptr, ptr %7, align 8
  %52 = load ptr, ptr %8, align 8
  %53 = load ptr, ptr %9, align 8
  %54 = call ptr @Abc_AigAndLookup(ptr noundef %51, ptr noundef %52, ptr noundef %53)
  store ptr %54, ptr %12, align 8
  %55 = icmp ne ptr %54, null
  br i1 %55, label %56, label %78

56:                                               ; preds = %50
  %57 = load ptr, ptr %7, align 8
  %58 = load ptr, ptr %8, align 8
  %59 = call ptr @Abc_ObjNot(ptr noundef %58)
  %60 = load ptr, ptr %10, align 8
  %61 = call ptr @Abc_AigAndLookup(ptr noundef %57, ptr noundef %59, ptr noundef %60)
  store ptr %61, ptr %13, align 8
  %62 = icmp ne ptr %61, null
  br i1 %62, label %63, label %78

63:                                               ; preds = %56
  %64 = load ptr, ptr %7, align 8
  %65 = load ptr, ptr %12, align 8
  %66 = call ptr @Abc_ObjNot(ptr noundef %65)
  %67 = load ptr, ptr %13, align 8
  %68 = call ptr @Abc_ObjNot(ptr noundef %67)
  %69 = call ptr @Abc_AigAndLookup(ptr noundef %64, ptr noundef %66, ptr noundef %68)
  store ptr %69, ptr %14, align 8
  %70 = load ptr, ptr %14, align 8
  %71 = icmp ne ptr %70, null
  br i1 %71, label %72, label %75

72:                                               ; preds = %63
  %73 = load ptr, ptr %14, align 8
  %74 = call ptr @Abc_ObjNot(ptr noundef %73)
  br label %76

75:                                               ; preds = %63
  br label %76

76:                                               ; preds = %75, %72
  %77 = phi ptr [ %74, %72 ], [ null, %75 ]
  store ptr %77, ptr %6, align 8
  br label %79

78:                                               ; preds = %56, %50
  store ptr null, ptr %6, align 8
  br label %79

79:                                               ; preds = %78, %76, %48
  %80 = load ptr, ptr %6, align 8
  ret ptr %80
}