; Function Attrs: nofree norecurse nosync nounwind memory(read, argmem: readwrite, inaccessiblemem: none) uwtable
define ptr @Abc_AigMuxLookup(ptr noundef readonly captures(none) %0, ptr noundef %1, ptr noundef %2, ptr noundef %3, ptr noundef writeonly %4) local_unnamed_addr #8 {
  %6 = icmp ne ptr %4, null
  br i1 %6, label %7, label %8

7:                                                ; preds = %5
  store i32 0, ptr %4, align 4
  br label %8

8:                                                ; preds = %7, %5
  %9 = ptrtoint ptr %2 to i64
  %10 = xor i64 %9, 1
  %11 = inttoptr i64 %10 to ptr
  %12 = tail call ptr @Abc_AigAndLookup(ptr noundef %0, ptr noundef %1, ptr noundef %11)
  %.not = icmp eq ptr %12, null
  br i1 %.not, label %31, label %13

13:                                               ; preds = %8
  %14 = ptrtoint ptr %1 to i64
  %15 = xor i64 %14, 1
  %16 = inttoptr i64 %15 to ptr
  %17 = ptrtoint ptr %3 to i64
  %18 = xor i64 %17, 1
  %19 = inttoptr i64 %18 to ptr
  %20 = tail call ptr @Abc_AigAndLookup(ptr noundef %0, ptr noundef %16, ptr noundef %19)
  %.not34 = icmp eq ptr %20, null
  br i1 %.not34, label %31, label %21

21:                                               ; preds = %13
  %22 = ptrtoint ptr %12 to i64
  %23 = xor i64 %22, 1
  %24 = inttoptr i64 %23 to ptr
  %25 = ptrtoint ptr %20 to i64
  %26 = xor i64 %25, 1
  %27 = inttoptr i64 %26 to ptr
  %28 = tail call ptr @Abc_AigAndLookup(ptr noundef %0, ptr noundef %24, ptr noundef %27)
  %29 = icmp ne ptr %28, null
  %or.cond = and i1 %6, %29
  br i1 %or.cond, label %30, label %50

30:                                               ; preds = %21
  store i32 1, ptr %4, align 4
  br label %50

31:                                               ; preds = %13, %8
  %32 = tail call ptr @Abc_AigAndLookup(ptr noundef %0, ptr noundef %1, ptr noundef %2)
  %.not35 = icmp eq ptr %32, null
  br i1 %.not35, label %50, label %33

33:                                               ; preds = %31
  %34 = ptrtoint ptr %1 to i64
  %35 = xor i64 %34, 1
  %36 = inttoptr i64 %35 to ptr
  %37 = tail call ptr @Abc_AigAndLookup(ptr noundef %0, ptr noundef %36, ptr noundef %3)
  %.not36 = icmp eq ptr %37, null
  br i1 %.not36, label %50, label %38

38:                                               ; preds = %33
  %39 = ptrtoint ptr %32 to i64
  %40 = xor i64 %39, 1
  %41 = inttoptr i64 %40 to ptr
  %42 = ptrtoint ptr %37 to i64
  %43 = xor i64 %42, 1
  %44 = inttoptr i64 %43 to ptr
  %45 = tail call ptr @Abc_AigAndLookup(ptr noundef %0, ptr noundef %41, ptr noundef %44)
  %.not37 = icmp eq ptr %45, null
  br i1 %.not37, label %50, label %46

46:                                               ; preds = %38
  %47 = ptrtoint ptr %45 to i64
  %48 = xor i64 %47, 1
  %49 = inttoptr i64 %48 to ptr
  br label %50

50:                                               ; preds = %31, %33, %46, %38, %21, %30
  %.0 = phi ptr [ %28, %30 ], [ %28, %21 ], [ %49, %46 ], [ null, %38 ], [ null, %33 ], [ null, %31 ]
  ret ptr %.0
}